(lp0
(dp1
V8466 W Peoria Ave\u000aSte 6\u000aPeoria, AZ 85345
p2
(dp3
S'coords'
p4
(F33.581867
F-112.241596
tp5
ssa(dp6
V8466 W Peoria Ave\u000aSte 6\u000aPeoria, AZ 85345
p7
(dp8
g4
(F33.581867
F-112.241596
tp9
ssa(dp10
V8466 W Peoria Ave\u000aSte 6\u000aPeoria, AZ 85345
p11
(dp12
S'coords'
p13
(F33.581867
F-112.241596
tp14
ssa(dp15
V8466 W Peoria Ave\u000aSte 6\u000aPeoria, AZ 85345
p16
(dp17
g13
(F33.581867
F-112.241596
tp18
ssa.